target datalayout = "e-m:e-p270:32:32-p271:32:32-p272:64:64-i64:64-i128:128-f80:128-n8:16:32:64-S128"
target triple = "x86_64-pc-linux-gnu"

%class.OffMeshConnectionTool = type <{ %struct.SampleTool, ptr, [3 x float], i8, i8, i8, i8 }>
%struct.SampleTool = type { ptr }
%class.InputGeom = type { ptr, ptr, [3 x float], [3 x float], %struct.BuildSettings, i8, [1536 x float], [256 x float], [256 x i8], [256 x i8], [256 x i16], [256 x i32], i32, [256 x %struct.ConvexVolume], i32 }
%struct.BuildSettings = type { float, float, float, float, float, float, float, float, float, float, float, float, float, i32, [3 x float], [3 x float], float }
%struct.ConvexVolume = type { [36 x float], float, float, i32, i32 }

; Function Attrs: mustprogress nounwind uwtable
define linkonce_odr dso_local void @_Z7rcVcopyPfPKf(ptr noundef %0, ptr noundef %1) #0 comdat {
  %3 = alloca ptr, align 8
  %4 = alloca ptr, align 8
  store ptr %0, ptr %3, align 8
  store ptr %1, ptr %4, align 8
  %5 = load ptr, ptr %4, align 8
  %6 = getelementptr inbounds float, ptr %5, i64 0
  %7 = load float, ptr %6, align 4
  %8 = load ptr, ptr %3, align 8
  %9 = getelementptr inbounds float, ptr %8, i64 0
  store float %7, ptr %9, align 4
  %10 = load ptr, ptr %4, align 8
  %11 = getelementptr inbounds float, ptr %10, i64 1
  %12 = load float, ptr %11, align 4
  %13 = load ptr, ptr %3, align 8
  %14 = getelementptr inbounds float, ptr %13, i64 1
  store float %12, ptr %14, align 4
  %15 = load ptr, ptr %4, align 8
  %16 = getelementptr inbounds float, ptr %15, i64 2
  %17 = load float, ptr %16, align 4
  %18 = load ptr, ptr %3, align 8
  %19 = getelementptr inbounds float, ptr %18, i64 2
  store float %17, ptr %19, align 4
  ret void
}

; Function Attrs: mustprogress nounwind uwtable
define linkonce_odr dso_local noundef float @_Z10rcVdistSqrPKfS0_(ptr noundef %0, ptr noundef %1) #0 comdat {
  %3 = alloca ptr, align 8
  %4 = alloca ptr, align 8
  %5 = alloca float, align 4
  %6 = alloca float, align 4
  %7 = alloca float, align 4
  store ptr %0, ptr %3, align 8
  store ptr %1, ptr %4, align 8
  %8 = load ptr, ptr %4, align 8
  %9 = getelementptr inbounds float, ptr %8, i64 0
  %10 = load float, ptr %9, align 4
  %11 = load ptr, ptr %3, align 8
  %12 = getelementptr inbounds float, ptr %11, i64 0
  %13 = load float, ptr %12, align 4
  %14 = fsub float %10, %13
  store float %14, ptr %5, align 4
  %15 = load ptr, ptr %4, align 8
  %16 = getelementptr inbounds float, ptr %15, i64 1
  %17 = load float, ptr %16, align 4
  %18 = load ptr, ptr %3, align 8
  %19 = getelementptr inbounds float, ptr %18, i64 1
  %20 = load float, ptr %19, align 4
  %21 = fsub float %17, %20
  store float %21, ptr %6, align 4
  %22 = load ptr, ptr %4, align 8
  %23 = getelementptr inbounds float, ptr %22, i64 2
  %24 = load float, ptr %23, align 4
  %25 = load ptr, ptr %3, align 8
  %26 = getelementptr inbounds float, ptr %25, i64 2
  %27 = load float, ptr %26, align 4
  %28 = fsub float %24, %27
  store float %28, ptr %7, align 4
  %29 = load float, ptr %5, align 4
  %30 = load float, ptr %5, align 4
  %31 = load float, ptr %6, align 4
  %32 = load float, ptr %6, align 4
  %33 = fmul float %31, %32
  %34 = call float @llvm.fmuladd.f32(float %29, float %30, float %33)
  %35 = load float, ptr %7, align 4
  %36 = load float, ptr %7, align 4
  %37 = call float @llvm.fmuladd.f32(float %35, float %36, float %34)
  ret float %37
}

; Function Attrs: mustprogress nounwind uwtable
define linkonce_odr dso_local noundef i32 @_ZNK9InputGeom25getOffMeshConnectionCountEv(ptr noundef nonnull align 8 dereferenceable(50312) %0) #0 comdat align 2 {
  %2 = alloca ptr, align 8
  store ptr %0, ptr %2, align 8
  %3 = load ptr, ptr %2, align 8
  %4 = getelementptr inbounds %class.InputGeom, ptr %3, i32 0, i32 12
  %5 = load i32, ptr %4, align 8
  ret i32 %5
}

; Function Attrs: mustprogress nounwind uwtable
define linkonce_odr dso_local noundef ptr @_ZNK9InputGeom25getOffMeshConnectionVertsEv(ptr noundef nonnull align 8 dereferenceable(50312) %0) #0 comdat align 2 {
  %2 = alloca ptr, align 8
  store ptr %0, ptr %2, align 8
  %3 = load ptr, ptr %2, align 8
  %4 = getelementptr inbounds %class.InputGeom, ptr %3, i32 0, i32 6
  %5 = getelementptr inbounds [1536 x float], ptr %4, i64 0, i64 0
  ret ptr %5
}

; Function Attrs: mustprogress uwtable
define dso_local void @_ZN21OffMeshConnectionTool11handleClickEPKfS1_b(ptr noundef nonnull align 8 dereferenceable(31) %0, ptr noundef %1, ptr noundef %2, i1 noundef zeroext %3) unnamed_addr #4 align 2 {
  %5 = alloca ptr, align 8
  %6 = alloca ptr, align 8
  %7 = alloca ptr, align 8
  %8 = alloca i8, align 1
  %9 = alloca ptr, align 8
  %10 = alloca float, align 4
  %11 = alloca i32, align 4
  %12 = alloca ptr, align 8
  %13 = alloca i32, align 4
  %14 = alloca ptr, align 8
  %15 = alloca float, align 4
  %16 = alloca i8, align 1
  %17 = alloca i16, align 2
  store ptr %0, ptr %5, align 8
  store ptr %1, ptr %6, align 8
  store ptr %2, ptr %7, align 8
  %18 = zext i1 %3 to i8
  store i8 %18, ptr %8, align 1
  %19 = load ptr, ptr %5, align 8
  %20 = getelementptr inbounds %class.OffMeshConnectionTool, ptr %19, i32 0, i32 1
  %21 = load ptr, ptr %20, align 8
  %22 = icmp ne ptr %21, null
  br i1 %22, label %24, label %23

23:                                               ; preds = %4
  br label %110

24:                                               ; preds = %4
  %25 = getelementptr inbounds %class.OffMeshConnectionTool, ptr %19, i32 0, i32 1
  %26 = load ptr, ptr %25, align 8
  %27 = load ptr, ptr %26, align 8
  %28 = getelementptr inbounds ptr, ptr %27, i64 14
  %29 = load ptr, ptr %28, align 8
  %30 = call noundef ptr %29(ptr noundef nonnull align 8 dereferenceable(200) %26)
  store ptr %30, ptr %9, align 8
  %31 = load ptr, ptr %9, align 8
  %32 = icmp ne ptr %31, null
  br i1 %32, label %34, label %33

33:                                               ; preds = %24
  br label %110

34:                                               ; preds = %24
  %35 = load i8, ptr %8, align 1
  %36 = trunc i8 %35 to i1
  br i1 %36, label %37, label %83

37:                                               ; preds = %34
  store float 0x47EFFFFFE0000000, ptr %10, align 4
  store i32 -1, ptr %11, align 4
  %38 = load ptr, ptr %9, align 8
  %39 = call noundef ptr @_ZNK9InputGeom25getOffMeshConnectionVertsEv(ptr noundef nonnull align 8 dereferenceable(50312) %38)
  store ptr %39, ptr %12, align 8
  store i32 0, ptr %13, align 4
  br label %40

40:                                               ; preds = %63, %37
  %41 = load i32, ptr %13, align 4
  %42 = load ptr, ptr %9, align 8
  %43 = call noundef i32 @_ZNK9InputGeom25getOffMeshConnectionCountEv(ptr noundef nonnull align 8 dereferenceable(50312) %42)
  %44 = mul nsw i32 %43, 2
  %45 = icmp slt i32 %41, %44
  br i1 %45, label %46, label %66

46:                                               ; preds = %40
  %47 = load ptr, ptr %12, align 8
  %48 = load i32, ptr %13, align 4
  %49 = mul nsw i32 %48, 3
  %50 = sext i32 %49 to i64
  %51 = getelementptr inbounds float, ptr %47, i64 %50
  store ptr %51, ptr %14, align 8
  %52 = load ptr, ptr %7, align 8
  %53 = load ptr, ptr %14, align 8
  %54 = call noundef float @_Z10rcVdistSqrPKfS0_(ptr noundef %52, ptr noundef %53)
  store float %54, ptr %15, align 4
  %55 = load float, ptr %15, align 4
  %56 = load float, ptr %10, align 4
  %57 = fcmp olt float %55, %56
  br i1 %57, label %58, label %62

58:                                               ; preds = %46
  %59 = load float, ptr %15, align 4
  store float %59, ptr %10, align 4
  %60 = load i32, ptr %13, align 4
  %61 = sdiv i32 %60, 2
  store i32 %61, ptr %11, align 4
  br label %62

62:                                               ; preds = %58, %46
  br label %63

63:                                               ; preds = %62
  %64 = load i32, ptr %13, align 4
  %65 = add nsw i32 %64, 1
  store i32 %65, ptr %13, align 4
  br label %40, !llvm.loop !5

66:                                               ; preds = %40
  %67 = load i32, ptr %11, align 4
  %68 = icmp ne i32 %67, -1
  br i1 %68, label %69, label %82

69:                                               ; preds = %66
  %70 = load float, ptr %10, align 4
  %71 = call float @sqrtf(float noundef %70) #7
  %72 = getelementptr inbounds %class.OffMeshConnectionTool, ptr %19, i32 0, i32 1
  %73 = load ptr, ptr %72, align 8
  %74 = load ptr, ptr %73, align 8
  %75 = getelementptr inbounds ptr, ptr %74, i64 18
  %76 = load ptr, ptr %75, align 8
  %77 = call noundef float %76(ptr noundef nonnull align 8 dereferenceable(200) %73)
  %78 = fcmp olt float %71, %77
  br i1 %78, label %79, label %82

79:                                               ; preds = %69
  %80 = load ptr, ptr %9, align 8
  %81 = load i32, ptr %11, align 4
  call void @_ZN9InputGeom23deleteOffMeshConnectionEi(ptr noundef nonnull align 8 dereferenceable(50312) %80, i32 noundef %81)
  br label %82

82:                                               ; preds = %79, %69, %66
  br label %110

83:                                               ; preds = %34
  %84 = getelementptr inbounds %class.OffMeshConnectionTool, ptr %19, i32 0, i32 3
  %85 = load i8, ptr %84, align 4
  %86 = trunc i8 %85 to i1
  br i1 %86, label %92, label %87

87:                                               ; preds = %83
  %88 = getelementptr inbounds %class.OffMeshConnectionTool, ptr %19, i32 0, i32 2
  %89 = getelementptr inbounds [3 x float], ptr %88, i64 0, i64 0
  %90 = load ptr, ptr %7, align 8
  call void @_Z7rcVcopyPfPKf(ptr noundef %89, ptr noundef %90)
  %91 = getelementptr inbounds %class.OffMeshConnectionTool, ptr %19, i32 0, i32 3
  store i8 1, ptr %91, align 4
  br label %109

92:                                               ; preds = %83
  store i8 5, ptr %16, align 1
  store i16 8, ptr %17, align 2
  %93 = load ptr, ptr %9, align 8
  %94 = getelementptr inbounds %class.OffMeshConnectionTool, ptr %19, i32 0, i32 2
  %95 = getelementptr inbounds [3 x float], ptr %94, i64 0, i64 0
  %96 = load ptr, ptr %7, align 8
  %97 = getelementptr inbounds %class.OffMeshConnectionTool, ptr %19, i32 0, i32 1
  %98 = load ptr, ptr %97, align 8
  %99 = load ptr, ptr %98, align 8
  %100 = getelementptr inbounds ptr, ptr %99, i64 18
  %101 = load ptr, ptr %100, align 8
  %102 = call noundef float %101(ptr noundef nonnull align 8 dereferenceable(200) %98)
  %103 = getelementptr inbounds %class.OffMeshConnectionTool, ptr %19, i32 0, i32 4
  %104 = load i8, ptr %103, align 1
  %105 = trunc i8 %104 to i1
  %106 = select i1 %105, i32 1, i32 0
  %107 = trunc i32 %106 to i8
  call void @_ZN9InputGeom20addOffMeshConnectionEPKfS1_fhht(ptr noundef nonnull align 8 dereferenceable(50312) %93, ptr noundef %95, ptr noundef %96, float noundef %102, i8 noundef zeroext %107, i8 noundef zeroext 5, i16 noundef zeroext 8)
  %108 = getelementptr inbounds %class.OffMeshConnectionTool, ptr %19, i32 0, i32 3
  store i8 0, ptr %108, align 4
  br label %109

109:                                              ; preds = %92, %87
  br label %110

110:                                              ; preds = %109, %82, %33, %23
  ret void
}