; Function Attrs: mustprogress uwtable
define dso_local void @_ZN21OffMeshConnectionTool11handleClickEPKfS1_b(ptr noundef nonnull align 8 dereferenceable(31) %0, ptr nocapture readnone %1, ptr noundef %2, i1 noundef zeroext %3) unnamed_addr #5 align 2 {
  %5 = getelementptr inbounds i8, ptr %0, i64 8
  %6 = load ptr, ptr %5, align 8
  %.not = icmp eq ptr %6, null
  br i1 %.not, label %._crit_edge.thread, label %7

7:                                                ; preds = %4
  %8 = load ptr, ptr %6, align 8
  %9 = getelementptr inbounds i8, ptr %8, i64 112
  %10 = load ptr, ptr %9, align 8
  %11 = tail call noundef ptr %10(ptr noundef nonnull align 8 dereferenceable(200) %6)
  %.not27 = icmp eq ptr %11, null
  br i1 %.not27, label %._crit_edge.thread, label %12

12:                                               ; preds = %7
  br i1 %3, label %13, label %50

13:                                               ; preds = %12
  %14 = getelementptr inbounds i8, ptr %11, i64 128
  %15 = getelementptr inbounds i8, ptr %11, i64 9344
  %16 = load i32, ptr %15, align 8
  %17 = icmp sgt i32 %16, 0
  br i1 %17, label %.lr.ph, label %._crit_edge.thread

.lr.ph:                                           ; preds = %13
  %18 = shl nuw i32 %16, 1
  %19 = load float, ptr %2, align 4
  %20 = getelementptr inbounds i8, ptr %2, i64 4
  %21 = load float, ptr %20, align 4
  %22 = getelementptr inbounds i8, ptr %2, i64 8
  %23 = load float, ptr %22, align 4
  %smax = tail call i32 @llvm.smax.i32(i32 %18, i32 1)
  %wide.trip.count = zext nneg i32 %smax to i64
  br label %24

24:                                               ; preds = %.lr.ph, %24
  %indvars.iv = phi i64 [ 0, %.lr.ph ], [ %indvars.iv.next, %24 ]
  %.033 = phi float [ 0x47EFFFFFE0000000, %.lr.ph ], [ %.1, %24 ]
  %.02132 = phi i32 [ -1, %.lr.ph ], [ %.122, %24 ]
  %25 = mul nuw nsw i64 %indvars.iv, 3
  %26 = getelementptr inbounds float, ptr %14, i64 %25
  %27 = load float, ptr %26, align 4
  %28 = fsub float %27, %19
  %29 = getelementptr inbounds i8, ptr %26, i64 4
  %30 = load float, ptr %29, align 4
  %31 = fsub float %30, %21
  %32 = getelementptr inbounds i8, ptr %26, i64 8
  %33 = load float, ptr %32, align 4
  %34 = fsub float %33, %23
  %35 = fmul float %31, %31
  %36 = tail call float @llvm.fmuladd.f32(float %28, float %28, float %35)
  %37 = tail call noundef float @llvm.fmuladd.f32(float %34, float %34, float %36)
  %38 = fcmp olt float %37, %.033
  %39 = trunc i64 %indvars.iv to i32
  %40 = lshr i32 %39, 1
  %.122 = select i1 %38, i32 %40, i32 %.02132
  %.1 = select i1 %38, float %37, float %.033
  %indvars.iv.next = add nuw nsw i64 %indvars.iv, 1
  %exitcond.not = icmp eq i64 %indvars.iv.next, %wide.trip.count
  br i1 %exitcond.not, label %._crit_edge, label %24, !llvm.loop !5

._crit_edge:                                      ; preds = %24
  %.not30 = icmp eq i32 %.122, -1
  br i1 %.not30, label %._crit_edge.thread, label %41

41:                                               ; preds = %._crit_edge
  %42 = tail call float @sqrtf(float noundef %.1) #11
  %43 = load ptr, ptr %5, align 8
  %44 = load ptr, ptr %43, align 8
  %45 = getelementptr inbounds i8, ptr %44, i64 144
  %46 = load ptr, ptr %45, align 8
  %47 = tail call noundef float %46(ptr noundef nonnull align 8 dereferenceable(200) %43)
  %48 = fcmp olt float %42, %47
  br i1 %48, label %49, label %._crit_edge.thread

49:                                               ; preds = %41
  tail call void @_ZN9InputGeom23deleteOffMeshConnectionEi(ptr noundef nonnull align 8 dereferenceable(50312) %11, i32 noundef %.122)
  br label %._crit_edge.thread

50:                                               ; preds = %12
  %51 = getelementptr inbounds i8, ptr %0, i64 28
  %52 = load i8, ptr %51, align 4
  %53 = and i8 %52, 1
  %.not28 = icmp eq i8 %53, 0
  %54 = getelementptr inbounds i8, ptr %0, i64 16
  br i1 %.not28, label %55, label %63

55:                                               ; preds = %50
  %56 = load float, ptr %2, align 4
  store float %56, ptr %54, align 8
  %57 = getelementptr inbounds i8, ptr %2, i64 4
  %58 = load float, ptr %57, align 4
  %59 = getelementptr inbounds i8, ptr %0, i64 20
  store float %58, ptr %59, align 4
  %60 = getelementptr inbounds i8, ptr %2, i64 8
  %61 = load float, ptr %60, align 4
  %62 = getelementptr inbounds i8, ptr %0, i64 24
  store float %61, ptr %62, align 8
  store i8 1, ptr %51, align 4
  br label %._crit_edge.thread

63:                                               ; preds = %50
  %64 = load ptr, ptr %5, align 8
  %65 = load ptr, ptr %64, align 8
  %66 = getelementptr inbounds i8, ptr %65, i64 144
  %67 = load ptr, ptr %66, align 8
  %68 = tail call noundef float %67(ptr noundef nonnull align 8 dereferenceable(200) %64)
  %69 = getelementptr inbounds i8, ptr %0, i64 29
  %70 = load i8, ptr %69, align 1
  %71 = and i8 %70, 1
  tail call void @_ZN9InputGeom20addOffMeshConnectionEPKfS1_fhht(ptr noundef nonnull align 8 dereferenceable(50312) %11, ptr noundef nonnull %54, ptr noundef %2, float noundef %68, i8 noundef zeroext %71, i8 noundef zeroext 5, i16 noundef zeroext 8)
  store i8 0, ptr %51, align 4
  br label %._crit_edge.thread

._crit_edge.thread:                               ; preds = %13, %55, %63, %._crit_edge, %41, %49, %7, %4
  ret void
}